
m8testboard3_vusb_PID.elf:     file format elf32-avr

Sections:
Idx Name          Size      VMA       LMA       File off  Algn
  0 .text         000006ec  00000000  00000000  00000094  2**1
                  CONTENTS, ALLOC, LOAD, READONLY, CODE
  1 .data         00000002  00800060  000006ec  00000780  2**0
                  CONTENTS, ALLOC, LOAD, DATA
  2 .bss          00000046  00800062  00800062  00000782  2**0
                  ALLOC
  3 .comment      00000011  00000000  00000000  00000782  2**0
                  CONTENTS, READONLY
  4 .note.gnu.avr.deviceinfo 0000003c  00000000  00000000  00000794  2**2
                  CONTENTS, READONLY

Disassembly of section .text:

00000000 <__vectors>:
   0:	36 c0       	rjmp	.+108    	; 0x6e <__ctors_end>
   2:	50 c0       	rjmp	.+160    	; 0xa4 <__bad_interrupt>
   4:	69 c0       	rjmp	.+210    	; 0xd8 <__vector_2>
   6:	4e c0       	rjmp	.+156    	; 0xa4 <__bad_interrupt>
   8:	4d c0       	rjmp	.+154    	; 0xa4 <__bad_interrupt>
   a:	4c c0       	rjmp	.+152    	; 0xa4 <__bad_interrupt>
   c:	4b c0       	rjmp	.+150    	; 0xa4 <__bad_interrupt>
   e:	4a c0       	rjmp	.+148    	; 0xa4 <__bad_interrupt>
  10:	49 c0       	rjmp	.+146    	; 0xa4 <__bad_interrupt>
  12:	48 c0       	rjmp	.+144    	; 0xa4 <__bad_interrupt>
  14:	47 c0       	rjmp	.+142    	; 0xa4 <__bad_interrupt>
  16:	46 c0       	rjmp	.+140    	; 0xa4 <__bad_interrupt>
  18:	45 c0       	rjmp	.+138    	; 0xa4 <__bad_interrupt>
  1a:	44 c0       	rjmp	.+136    	; 0xa4 <__bad_interrupt>
  1c:	43 c0       	rjmp	.+134    	; 0xa4 <__bad_interrupt>
  1e:	42 c0       	rjmp	.+132    	; 0xa4 <__bad_interrupt>
  20:	41 c0       	rjmp	.+130    	; 0xa4 <__bad_interrupt>
  22:	40 c0       	rjmp	.+128    	; 0xa4 <__bad_interrupt>
  24:	3f c0       	rjmp	.+126    	; 0xa4 <__bad_interrupt>

00000026 <__trampolines_end>:
  26:	09 02       	muls	r16, r25
  28:	12 00       	.word	0x0012	; ????
  2a:	01 01       	movw	r0, r2
  2c:	00 80       	ld	r0, Z
  2e:	3c 09       	sbc	r19, r12
  30:	04 00       	.word	0x0004	; ????
  32:	00 00       	nop
  34:	00 00       	nop
	...

00000038 <usbDescriptorDevice>:
  38:	12 01 10 01 ff 00 00 08 c0 16 dc 05 00 01 01 02     ................
  48:	00 01                                               ..

0000004a <usbDescriptorStringDevice>:
  4a:	0a 03 54 00 65 00 73 00 74 00                       ..T.e.s.t.

00000054 <usbDescriptorStringVendor>:
  54:	16 03 50 00 68 00 6c 00 74 00 5f 00 6d 00 38 00     ..P.h.l.t._.m.8.
  64:	62 00 72 00 64 00                                   b.r.d.

0000006a <usbDescriptorString0>:
  6a:	04 03 09 04                                         ....

0000006e <__ctors_end>:
  6e:	11 24       	eor	r1, r1
  70:	1f be       	out	0x3f, r1	; 63
  72:	cf e5       	ldi	r28, 0x5F	; 95
  74:	d4 e0       	ldi	r29, 0x04	; 4
  76:	de bf       	out	0x3e, r29	; 62
  78:	cd bf       	out	0x3d, r28	; 61

0000007a <__do_copy_data>:
  7a:	10 e0       	ldi	r17, 0x00	; 0
  7c:	a0 e6       	ldi	r26, 0x60	; 96
  7e:	b0 e0       	ldi	r27, 0x00	; 0
  80:	ec ee       	ldi	r30, 0xEC	; 236
  82:	f6 e0       	ldi	r31, 0x06	; 6
  84:	02 c0       	rjmp	.+4      	; 0x8a <__do_copy_data+0x10>
  86:	05 90       	lpm	r0, Z+
  88:	0d 92       	st	X+, r0
  8a:	a2 36       	cpi	r26, 0x62	; 98
  8c:	b1 07       	cpc	r27, r17
  8e:	d9 f7       	brne	.-10     	; 0x86 <__do_copy_data+0xc>

00000090 <__do_clear_bss>:
  90:	20 e0       	ldi	r18, 0x00	; 0
  92:	a2 e6       	ldi	r26, 0x62	; 98
  94:	b0 e0       	ldi	r27, 0x00	; 0
  96:	01 c0       	rjmp	.+2      	; 0x9a <.do_clear_bss_start>

00000098 <.do_clear_bss_loop>:
  98:	1d 92       	st	X+, r1

0000009a <.do_clear_bss_start>:
  9a:	a8 3a       	cpi	r26, 0xA8	; 168
  9c:	b2 07       	cpc	r27, r18
  9e:	e1 f7       	brne	.-8      	; 0x98 <.do_clear_bss_loop>
  a0:	cd d2       	rcall	.+1434   	; 0x63c <main>
  a2:	22 c3       	rjmp	.+1604   	; 0x6e8 <_exit>

000000a4 <__bad_interrupt>:
  a4:	ad cf       	rjmp	.-166    	; 0x0 <__vectors>

000000a6 <usbCrc16>:
  a6:	a8 2f       	mov	r26, r24
  a8:	b9 2f       	mov	r27, r25
  aa:	80 e0       	ldi	r24, 0x00	; 0
  ac:	90 e0       	ldi	r25, 0x00	; 0
  ae:	41 e0       	ldi	r20, 0x01	; 1
  b0:	50 ea       	ldi	r21, 0xA0	; 160
  b2:	60 95       	com	r22
  b4:	30 e0       	ldi	r19, 0x00	; 0
  b6:	09 c0       	rjmp	.+18     	; 0xca <usbCrcLoopEntry>

000000b8 <usbCrcByteLoop>:
  b8:	2d 91       	ld	r18, X+
  ba:	82 27       	eor	r24, r18

000000bc <usbCrcBitLoop>:
  bc:	97 95       	ror	r25
  be:	87 95       	ror	r24
  c0:	10 f0       	brcs	.+4      	; 0xc6 <usbCrcNoXor>
  c2:	84 27       	eor	r24, r20
  c4:	95 27       	eor	r25, r21

000000c6 <usbCrcNoXor>:
  c6:	30 5e       	subi	r19, 0xE0	; 224
  c8:	c8 f3       	brcs	.-14     	; 0xbc <usbCrcBitLoop>

000000ca <usbCrcLoopEntry>:
  ca:	6f 5f       	subi	r22, 0xFF	; 255
  cc:	a8 f3       	brcs	.-22     	; 0xb8 <usbCrcByteLoop>

000000ce <usbCrcReady>:
  ce:	08 95       	ret

000000d0 <usbCrc16Append>:
  d0:	ea df       	rcall	.-44     	; 0xa6 <usbCrc16>
  d2:	8d 93       	st	X+, r24
  d4:	9d 93       	st	X+, r25
  d6:	08 95       	ret

000000d8 <__vector_2>:
  d8:	cf 93       	push	r28
  da:	cf b7       	in	r28, 0x3f	; 63
  dc:	cf 93       	push	r28

000000de <waitForJ>:
  de:	c3 95       	inc	r28
  e0:	80 9b       	sbis	0x10, 0	; 16
  e2:	e9 f7       	brne	.-6      	; 0xde <waitForJ>

000000e4 <waitForK>:
  e4:	80 9b       	sbis	0x10, 0	; 16
  e6:	09 c0       	rjmp	.+18     	; 0xfa <foundK>
  e8:	80 9b       	sbis	0x10, 0	; 16
  ea:	07 c0       	rjmp	.+14     	; 0xfa <foundK>
  ec:	80 9b       	sbis	0x10, 0	; 16
  ee:	05 c0       	rjmp	.+10     	; 0xfa <foundK>
  f0:	80 9b       	sbis	0x10, 0	; 16
  f2:	03 c0       	rjmp	.+6      	; 0xfa <foundK>
  f4:	80 9b       	sbis	0x10, 0	; 16
  f6:	01 c0       	rjmp	.+2      	; 0xfa <foundK>
  f8:	a1 c0       	rjmp	.+322    	; 0x23c <sofError>

000000fa <foundK>:
  fa:	df 93       	push	r29
  fc:	c0 91 89 00 	lds	r28, 0x0089
 100:	dd 27       	eor	r29, r29
 102:	c0 57       	subi	r28, 0x70	; 112
 104:	df 4f       	sbci	r29, 0xFF	; 255
 106:	80 9b       	sbis	0x10, 0	; 16
 108:	02 c0       	rjmp	.+4      	; 0x10e <haveTwoBitsK>
 10a:	df 91       	pop	r29
 10c:	eb cf       	rjmp	.-42     	; 0xe4 <waitForK>

0000010e <haveTwoBitsK>:
 10e:	2f 93       	push	r18
 110:	0f 93       	push	r16
 112:	1f 93       	push	r17
 114:	00 b3       	in	r16, 0x10	; 16
 116:	2f ef       	ldi	r18, 0xFF	; 255
 118:	00 fb       	bst	r16, 0
 11a:	20 f9       	bld	r18, 0
 11c:	4f 93       	push	r20
 11e:	3f 93       	push	r19
 120:	10 b3       	in	r17, 0x10	; 16
 122:	4f ef       	ldi	r20, 0xFF	; 255
 124:	01 27       	eor	r16, r17
 126:	00 fb       	bst	r16, 0
 128:	21 f9       	bld	r18, 1
 12a:	3b e0       	ldi	r19, 0x0B	; 11
 12c:	31 c0       	rjmp	.+98     	; 0x190 <rxbit2>

0000012e <unstuff0>:
 12e:	4e 7f       	andi	r20, 0xFE	; 254
 130:	01 2f       	mov	r16, r17
 132:	10 b3       	in	r17, 0x10	; 16
 134:	21 60       	ori	r18, 0x01	; 1
 136:	28 c0       	rjmp	.+80     	; 0x188 <didUnstuff0>

00000138 <unstuff1>:
 138:	10 2f       	mov	r17, r16
 13a:	4d 7f       	andi	r20, 0xFD	; 253
 13c:	22 60       	ori	r18, 0x02	; 2
 13e:	00 00       	nop
 140:	00 b3       	in	r16, 0x10	; 16
 142:	29 c0       	rjmp	.+82     	; 0x196 <didUnstuff1>

00000144 <unstuff2>:
 144:	4b 7f       	andi	r20, 0xFB	; 251
 146:	24 60       	ori	r18, 0x04	; 4
 148:	01 2f       	mov	r16, r17
 14a:	00 00       	nop
 14c:	10 b3       	in	r17, 0x10	; 16
 14e:	2b c0       	rjmp	.+86     	; 0x1a6 <didUnstuff2>

00000150 <unstuff3>:
 150:	10 b3       	in	r17, 0x10	; 16
 152:	47 7f       	andi	r20, 0xF7	; 247
 154:	28 60       	ori	r18, 0x08	; 8
 156:	2a c0       	rjmp	.+84     	; 0x1ac <didUnstuff3>

00000158 <unstuff4>:
 158:	4f 7e       	andi	r20, 0xEF	; 239
 15a:	00 b3       	in	r16, 0x10	; 16
 15c:	20 61       	ori	r18, 0x10	; 16
 15e:	2c c0       	rjmp	.+88     	; 0x1b8 <didUnstuff4>

00000160 <unstuff5>:
 160:	4f 7d       	andi	r20, 0xDF	; 223
 162:	10 b3       	in	r17, 0x10	; 16
 164:	20 62       	ori	r18, 0x20	; 32
 166:	2f c0       	rjmp	.+94     	; 0x1c6 <didUnstuff5>

00000168 <unstuff6>:
 168:	4f 7b       	andi	r20, 0xBF	; 191
 16a:	00 b3       	in	r16, 0x10	; 16
 16c:	20 64       	ori	r18, 0x40	; 64
 16e:	32 c0       	rjmp	.+100    	; 0x1d4 <didUnstuff6>

00000170 <rxLoop>:
 170:	42 27       	eor	r20, r18
 172:	00 b3       	in	r16, 0x10	; 16
 174:	49 93       	st	Y+, r20
 176:	4f ef       	ldi	r20, 0xFF	; 255
 178:	00 00       	nop
 17a:	10 27       	eor	r17, r16
 17c:	10 fb       	bst	r17, 0
 17e:	20 f9       	bld	r18, 0
 180:	10 b3       	in	r17, 0x10	; 16
 182:	19 70       	andi	r17, 0x09	; 9
 184:	c9 f1       	breq	.+114    	; 0x1f8 <se0>
 186:	29 7f       	andi	r18, 0xF9	; 249

00000188 <didUnstuff0>:
 188:	91 f2       	breq	.-92     	; 0x12e <unstuff0>
 18a:	01 27       	eor	r16, r17
 18c:	00 fb       	bst	r16, 0
 18e:	21 f9       	bld	r18, 1

00000190 <rxbit2>:
 190:	00 b3       	in	r16, 0x10	; 16
 192:	23 7f       	andi	r18, 0xF3	; 243
 194:	89 f2       	breq	.-94     	; 0x138 <unstuff1>

00000196 <didUnstuff1>:
 196:	31 50       	subi	r19, 0x01	; 1
 198:	58 f1       	brcs	.+86     	; 0x1f0 <overflow>
 19a:	10 27       	eor	r17, r16
 19c:	10 fb       	bst	r17, 0
 19e:	22 f9       	bld	r18, 2
 1a0:	10 b3       	in	r17, 0x10	; 16
 1a2:	27 7e       	andi	r18, 0xE7	; 231
 1a4:	79 f2       	breq	.-98     	; 0x144 <unstuff2>

000001a6 <didUnstuff2>:
 1a6:	01 27       	eor	r16, r17
 1a8:	00 fb       	bst	r16, 0
 1aa:	23 f9       	bld	r18, 3

000001ac <didUnstuff3>:
 1ac:	2f 7c       	andi	r18, 0xCF	; 207
 1ae:	81 f2       	breq	.-96     	; 0x150 <unstuff3>
 1b0:	00 b3       	in	r16, 0x10	; 16
 1b2:	10 27       	eor	r17, r16
 1b4:	10 fb       	bst	r17, 0
 1b6:	24 f9       	bld	r18, 4

000001b8 <didUnstuff4>:
 1b8:	2f 79       	andi	r18, 0x9F	; 159
 1ba:	71 f2       	breq	.-100    	; 0x158 <unstuff4>
 1bc:	00 c0       	rjmp	.+0      	; 0x1be <didUnstuff4+0x6>
 1be:	10 b3       	in	r17, 0x10	; 16
 1c0:	01 27       	eor	r16, r17
 1c2:	00 fb       	bst	r16, 0
 1c4:	25 f9       	bld	r18, 5

000001c6 <didUnstuff5>:
 1c6:	2f 73       	andi	r18, 0x3F	; 63
 1c8:	59 f2       	breq	.-106    	; 0x160 <unstuff5>
 1ca:	00 c0       	rjmp	.+0      	; 0x1cc <didUnstuff5+0x6>
 1cc:	00 b3       	in	r16, 0x10	; 16
 1ce:	10 27       	eor	r17, r16
 1d0:	10 fb       	bst	r17, 0
 1d2:	26 f9       	bld	r18, 6

000001d4 <didUnstuff6>:
 1d4:	22 30       	cpi	r18, 0x02	; 2
 1d6:	40 f2       	brcs	.-112    	; 0x168 <unstuff6>
 1d8:	00 c0       	rjmp	.+0      	; 0x1da <didUnstuff6+0x6>
 1da:	10 b3       	in	r17, 0x10	; 16
 1dc:	01 27       	eor	r16, r17
 1de:	00 fb       	bst	r16, 0
 1e0:	27 f9       	bld	r18, 7

000001e2 <didUnstuff7>:
 1e2:	24 30       	cpi	r18, 0x04	; 4
 1e4:	28 f6       	brcc	.-118    	; 0x170 <rxLoop>

000001e6 <unstuff7>:
 1e6:	4f 77       	andi	r20, 0x7F	; 127
 1e8:	20 68       	ori	r18, 0x80	; 128
 1ea:	10 b3       	in	r17, 0x10	; 16
 1ec:	00 00       	nop
 1ee:	f9 cf       	rjmp	.-14     	; 0x1e2 <didUnstuff7>

000001f0 <overflow>:
 1f0:	10 e8       	ldi	r17, 0x80	; 128
 1f2:	1a bf       	out	0x3a, r17	; 58

000001f4 <ignorePacket>:
 1f4:	00 27       	eor	r16, r16
 1f6:	17 c0       	rjmp	.+46     	; 0x226 <handleSetupOrOut>

000001f8 <se0>:
 1f8:	3b 50       	subi	r19, 0x0B	; 11
 1fa:	31 95       	neg	r19
 1fc:	c3 1b       	sub	r28, r19
 1fe:	d0 40       	sbci	r29, 0x00	; 0
 200:	10 e8       	ldi	r17, 0x80	; 128
 202:	1a bf       	out	0x3a, r17	; 58
 204:	08 81       	ld	r16, Y
 206:	03 3c       	cpi	r16, 0xC3	; 195
 208:	e9 f0       	breq	.+58     	; 0x244 <handleData>
 20a:	0b 34       	cpi	r16, 0x4B	; 75
 20c:	d9 f0       	breq	.+54     	; 0x244 <handleData>
 20e:	20 91 87 00 	lds	r18, 0x0087
 212:	19 81       	ldd	r17, Y+1	; 0x01
 214:	11 0f       	add	r17, r17
 216:	12 13       	cpse	r17, r18
 218:	ed cf       	rjmp	.-38     	; 0x1f4 <ignorePacket>
 21a:	09 36       	cpi	r16, 0x69	; 105
 21c:	41 f1       	breq	.+80     	; 0x26e <handleIn>
 21e:	0d 32       	cpi	r16, 0x2D	; 45
 220:	11 f0       	breq	.+4      	; 0x226 <handleSetupOrOut>
 222:	01 3e       	cpi	r16, 0xE1	; 225
 224:	39 f7       	brne	.-50     	; 0x1f4 <ignorePacket>

00000226 <handleSetupOrOut>:
 226:	00 93 8e 00 	sts	0x008E, r16

0000022a <doReturn>:
 22a:	3f 91       	pop	r19
 22c:	4f 91       	pop	r20
 22e:	1f 91       	pop	r17
 230:	0f 91       	pop	r16
 232:	2f 91       	pop	r18
 234:	df 91       	pop	r29
 236:	ca b7       	in	r28, 0x3a	; 58
 238:	c7 fd       	sbrc	r28, 7
 23a:	51 cf       	rjmp	.-350    	; 0xde <waitForJ>

0000023c <sofError>:
 23c:	cf 91       	pop	r28
 23e:	cf bf       	out	0x3f, r28	; 63
 240:	cf 91       	pop	r28
 242:	18 95       	reti

00000244 <handleData>:
 244:	20 91 8e 00 	lds	r18, 0x008E
 248:	22 23       	and	r18, r18
 24a:	79 f3       	breq	.-34     	; 0x22a <doReturn>
 24c:	10 91 8c 00 	lds	r17, 0x008C
 250:	11 23       	and	r17, r17
 252:	11 f5       	brne	.+68     	; 0x298 <sendNakAndReti>
 254:	34 30       	cpi	r19, 0x04	; 4
 256:	12 f1       	brmi	.+68     	; 0x29c <sendAckAndReti>
 258:	30 93 8c 00 	sts	0x008C, r19
 25c:	20 93 88 00 	sts	0x0088, r18
 260:	10 91 89 00 	lds	r17, 0x0089
 264:	3b e0       	ldi	r19, 0x0B	; 11
 266:	31 1b       	sub	r19, r17
 268:	30 93 89 00 	sts	0x0089, r19
 26c:	17 c0       	rjmp	.+46     	; 0x29c <sendAckAndReti>

0000026e <handleIn>:
 26e:	00 91 8c 00 	lds	r16, 0x008C
 272:	01 30       	cpi	r16, 0x01	; 1
 274:	8c f4       	brge	.+34     	; 0x298 <sendNakAndReti>
 276:	0a e5       	ldi	r16, 0x5A	; 90
 278:	30 91 61 00 	lds	r19, 0x0061
 27c:	34 fd       	sbrc	r19, 4
 27e:	10 c0       	rjmp	.+32     	; 0x2a0 <sendCntAndReti>
 280:	00 93 61 00 	sts	0x0061, r16
 284:	cc e7       	ldi	r28, 0x7C	; 124
 286:	d0 e0       	ldi	r29, 0x00	; 0
 288:	0f c0       	rjmp	.+30     	; 0x2a8 <usbSendAndReti>

0000028a <stuffN1Delay>:
 28a:	27 95       	ror	r18
 28c:	a8 f4       	brcc	.+42     	; 0x2b8 <doExorN1>
 28e:	51 50       	subi	r21, 0x01	; 1
 290:	a9 f4       	brne	.+42     	; 0x2bc <commonN1>
 292:	22 0f       	add	r18, r18
 294:	00 00       	nop
 296:	f9 cf       	rjmp	.-14     	; 0x28a <stuffN1Delay>

00000298 <sendNakAndReti>:
 298:	4a e5       	ldi	r20, 0x5A	; 90
 29a:	03 c0       	rjmp	.+6      	; 0x2a2 <usbSendX3>

0000029c <sendAckAndReti>:
 29c:	42 ed       	ldi	r20, 0xD2	; 210
 29e:	01 c0       	rjmp	.+2      	; 0x2a2 <usbSendX3>

000002a0 <sendCntAndReti>:
 2a0:	43 2f       	mov	r20, r19

000002a2 <usbSendX3>:
 2a2:	c4 e1       	ldi	r28, 0x14	; 20
 2a4:	d0 e0       	ldi	r29, 0x00	; 0
 2a6:	32 e0       	ldi	r19, 0x02	; 2

000002a8 <usbSendAndReti>:
 2a8:	11 b3       	in	r17, 0x11	; 17
 2aa:	19 60       	ori	r17, 0x09	; 9
 2ac:	90 9a       	sbi	0x12, 0	; 18
 2ae:	11 bb       	out	0x11, r17	; 17
 2b0:	02 b3       	in	r16, 0x12	; 18
 2b2:	20 e4       	ldi	r18, 0x40	; 64
 2b4:	19 e0       	ldi	r17, 0x09	; 9
 2b6:	5f 93       	push	r21

000002b8 <doExorN1>:
 2b8:	01 27       	eor	r16, r17
 2ba:	56 e0       	ldi	r21, 0x06	; 6

000002bc <commonN1>:
 2bc:	02 bb       	out	0x12, r16	; 18
 2be:	27 95       	ror	r18
 2c0:	20 f4       	brcc	.+8      	; 0x2ca <doExorN2>
 2c2:	51 50       	subi	r21, 0x01	; 1
 2c4:	21 f4       	brne	.+8      	; 0x2ce <commonN2>
 2c6:	22 0f       	add	r18, r18
 2c8:	f9 cf       	rjmp	.-14     	; 0x2bc <commonN1>

000002ca <doExorN2>:
 2ca:	01 27       	eor	r16, r17
 2cc:	56 e0       	ldi	r21, 0x06	; 6

000002ce <commonN2>:
 2ce:	00 00       	nop
 2d0:	3b 5a       	subi	r19, 0xAB	; 171
 2d2:	02 bb       	out	0x12, r16	; 18
 2d4:	d0 f2       	brcs	.-76     	; 0x28a <stuffN1Delay>

000002d6 <stuff6Delay>:
 2d6:	27 95       	ror	r18
 2d8:	28 f4       	brcc	.+10     	; 0x2e4 <doExor6>
 2da:	51 50       	subi	r21, 0x01	; 1
 2dc:	29 f4       	brne	.+10     	; 0x2e8 <common6>
 2de:	22 0f       	add	r18, r18
 2e0:	00 00       	nop
 2e2:	f9 cf       	rjmp	.-14     	; 0x2d6 <stuff6Delay>

000002e4 <doExor6>:
 2e4:	01 27       	eor	r16, r17
 2e6:	56 e0       	ldi	r21, 0x06	; 6

000002e8 <common6>:
 2e8:	27 95       	ror	r18
 2ea:	02 bb       	out	0x12, r16	; 18
 2ec:	20 f4       	brcc	.+8      	; 0x2f6 <doExor7>
 2ee:	51 50       	subi	r21, 0x01	; 1
 2f0:	21 f4       	brne	.+8      	; 0x2fa <common7>
 2f2:	22 0f       	add	r18, r18
 2f4:	f9 cf       	rjmp	.-14     	; 0x2e8 <common6>

000002f6 <doExor7>:
 2f6:	01 27       	eor	r16, r17
 2f8:	56 e0       	ldi	r21, 0x06	; 6

000002fa <common7>:
 2fa:	29 91       	ld	r18, Y+
 2fc:	33 23       	and	r19, r19
 2fe:	02 bb       	out	0x12, r16	; 18
 300:	21 f6       	brne	.-120    	; 0x28a <stuffN1Delay>
 302:	06 7f       	andi	r16, 0xF6	; 246
 304:	10 91 8d 00 	lds	r17, 0x008D
 308:	11 0f       	add	r17, r17
 30a:	c6 51       	subi	r28, 0x16	; 22
 30c:	d0 40       	sbci	r29, 0x00	; 0
 30e:	02 bb       	out	0x12, r16	; 18
 310:	11 f0       	breq	.+4      	; 0x316 <skipAddrAssign>
 312:	10 93 87 00 	sts	0x0087, r17

00000316 <skipAddrAssign>:
 316:	10 e8       	ldi	r17, 0x80	; 128
 318:	1a bf       	out	0x3a, r17	; 58
 31a:	01 60       	ori	r16, 0x01	; 1
 31c:	11 b3       	in	r17, 0x11	; 17
 31e:	16 7f       	andi	r17, 0xF6	; 246
 320:	40 2f       	mov	r20, r16
 322:	46 7f       	andi	r20, 0xF6	; 246
 324:	5f 91       	pop	r21
 326:	00 c0       	rjmp	.+0      	; 0x328 <skipAddrAssign+0x12>
 328:	00 c0       	rjmp	.+0      	; 0x32a <skipAddrAssign+0x14>
 32a:	02 bb       	out	0x12, r16	; 18
 32c:	11 bb       	out	0x11, r17	; 17
 32e:	42 bb       	out	0x12, r20	; 18
 330:	7c cf       	rjmp	.-264    	; 0x22a <doReturn>

00000332 <usbPoll>:
 332:	cf 93       	push	r28
 334:	df 93       	push	r29
 336:	60 91 8c 00 	lds	r22, 0x008C
 33a:	63 50       	subi	r22, 0x03	; 3
 33c:	67 fd       	sbrc	r22, 7
 33e:	a5 c0       	rjmp	.+330    	; 0x48a <__stack+0x2b>
 340:	80 91 89 00 	lds	r24, 0x0089
 344:	cc e0       	ldi	r28, 0x0C	; 12
 346:	d0 e0       	ldi	r29, 0x00	; 0
 348:	c8 1b       	sub	r28, r24
 34a:	d1 09       	sbc	r29, r1
 34c:	c0 57       	subi	r28, 0x70	; 112
 34e:	df 4f       	sbci	r29, 0xFF	; 255
 350:	80 91 88 00 	lds	r24, 0x0088
 354:	8d 32       	cpi	r24, 0x2D	; 45
 356:	09 f0       	breq	.+2      	; 0x35a <usbPoll+0x28>
 358:	87 c0       	rjmp	.+270    	; 0x468 <__stack+0x9>
 35a:	68 30       	cpi	r22, 0x08	; 8
 35c:	09 f0       	breq	.+2      	; 0x360 <usbPoll+0x2e>
 35e:	93 c0       	rjmp	.+294    	; 0x486 <__stack+0x27>
 360:	83 ec       	ldi	r24, 0xC3	; 195
 362:	80 93 7c 00 	sts	0x007C, r24
 366:	8a e5       	ldi	r24, 0x5A	; 90
 368:	80 93 61 00 	sts	0x0061, r24
 36c:	10 92 62 00 	sts	0x0062, r1
 370:	88 81       	ld	r24, Y
 372:	80 76       	andi	r24, 0x60	; 96
 374:	39 f0       	breq	.+14     	; 0x384 <usbPoll+0x52>
 376:	ce 01       	movw	r24, r28
 378:	27 d1       	rcall	.+590    	; 0x5c8 <usbFunctionSetup>
 37a:	98 2f       	mov	r25, r24
 37c:	8f 3f       	cpi	r24, 0xFF	; 255
 37e:	09 f4       	brne	.+2      	; 0x382 <usbPoll+0x50>
 380:	62 c0       	rjmp	.+196    	; 0x446 <usbPoll+0x114>
 382:	68 c0       	rjmp	.+208    	; 0x454 <usbPoll+0x122>
 384:	9a 81       	ldd	r25, Y+2	; 0x02
 386:	10 92 85 00 	sts	0x0085, r1
 38a:	89 81       	ldd	r24, Y+1	; 0x01
 38c:	81 11       	cpse	r24, r1
 38e:	06 c0       	rjmp	.+12     	; 0x39c <usbPoll+0x6a>
 390:	10 92 86 00 	sts	0x0086, r1
 394:	25 e8       	ldi	r18, 0x85	; 133
 396:	30 e0       	ldi	r19, 0x00	; 0
 398:	92 e0       	ldi	r25, 0x02	; 2
 39a:	50 c0       	rjmp	.+160    	; 0x43c <usbPoll+0x10a>
 39c:	85 30       	cpi	r24, 0x05	; 5
 39e:	19 f4       	brne	.+6      	; 0x3a6 <usbPoll+0x74>
 3a0:	90 93 8d 00 	sts	0x008D, r25
 3a4:	3d c0       	rjmp	.+122    	; 0x420 <usbPoll+0xee>
 3a6:	86 30       	cpi	r24, 0x06	; 6
 3a8:	a9 f5       	brne	.+106    	; 0x414 <usbPoll+0xe2>
 3aa:	8b 81       	ldd	r24, Y+3	; 0x03
 3ac:	81 30       	cpi	r24, 0x01	; 1
 3ae:	19 f4       	brne	.+6      	; 0x3b6 <usbPoll+0x84>
 3b0:	88 e3       	ldi	r24, 0x38	; 56
 3b2:	90 e0       	ldi	r25, 0x00	; 0
 3b4:	04 c0       	rjmp	.+8      	; 0x3be <usbPoll+0x8c>
 3b6:	82 30       	cpi	r24, 0x02	; 2
 3b8:	41 f4       	brne	.+16     	; 0x3ca <usbPoll+0x98>
 3ba:	86 e2       	ldi	r24, 0x26	; 38
 3bc:	90 e0       	ldi	r25, 0x00	; 0
 3be:	90 93 8b 00 	sts	0x008B, r25
 3c2:	80 93 8a 00 	sts	0x008A, r24
 3c6:	92 e1       	ldi	r25, 0x12	; 18
 3c8:	21 c0       	rjmp	.+66     	; 0x40c <usbPoll+0xda>
 3ca:	83 30       	cpi	r24, 0x03	; 3
 3cc:	f1 f4       	brne	.+60     	; 0x40a <usbPoll+0xd8>
 3ce:	91 11       	cpse	r25, r1
 3d0:	08 c0       	rjmp	.+16     	; 0x3e2 <usbPoll+0xb0>
 3d2:	8a e6       	ldi	r24, 0x6A	; 106
 3d4:	90 e0       	ldi	r25, 0x00	; 0
 3d6:	90 93 8b 00 	sts	0x008B, r25
 3da:	80 93 8a 00 	sts	0x008A, r24
 3de:	94 e0       	ldi	r25, 0x04	; 4
 3e0:	15 c0       	rjmp	.+42     	; 0x40c <usbPoll+0xda>
 3e2:	91 30       	cpi	r25, 0x01	; 1
 3e4:	41 f4       	brne	.+16     	; 0x3f6 <usbPoll+0xc4>
 3e6:	84 e5       	ldi	r24, 0x54	; 84
 3e8:	90 e0       	ldi	r25, 0x00	; 0
 3ea:	90 93 8b 00 	sts	0x008B, r25
 3ee:	80 93 8a 00 	sts	0x008A, r24
 3f2:	96 e1       	ldi	r25, 0x16	; 22
 3f4:	0b c0       	rjmp	.+22     	; 0x40c <usbPoll+0xda>
 3f6:	92 30       	cpi	r25, 0x02	; 2
 3f8:	41 f4       	brne	.+16     	; 0x40a <usbPoll+0xd8>
 3fa:	8a e4       	ldi	r24, 0x4A	; 74
 3fc:	90 e0       	ldi	r25, 0x00	; 0
 3fe:	90 93 8b 00 	sts	0x008B, r25
 402:	80 93 8a 00 	sts	0x008A, r24
 406:	9a e0       	ldi	r25, 0x0A	; 10
 408:	01 c0       	rjmp	.+2      	; 0x40c <usbPoll+0xda>
 40a:	90 e0       	ldi	r25, 0x00	; 0
 40c:	80 e4       	ldi	r24, 0x40	; 64
 40e:	80 93 62 00 	sts	0x0062, r24
 412:	20 c0       	rjmp	.+64     	; 0x454 <usbPoll+0x122>
 414:	88 30       	cpi	r24, 0x08	; 8
 416:	79 f0       	breq	.+30     	; 0x436 <usbPoll+0x104>
 418:	89 30       	cpi	r24, 0x09	; 9
 41a:	31 f4       	brne	.+12     	; 0x428 <usbPoll+0xf6>
 41c:	90 93 8f 00 	sts	0x008F, r25
 420:	25 e8       	ldi	r18, 0x85	; 133
 422:	30 e0       	ldi	r19, 0x00	; 0
 424:	90 e0       	ldi	r25, 0x00	; 0
 426:	0a c0       	rjmp	.+20     	; 0x43c <usbPoll+0x10a>
 428:	91 e0       	ldi	r25, 0x01	; 1
 42a:	8a 30       	cpi	r24, 0x0A	; 10
 42c:	09 f0       	breq	.+2      	; 0x430 <usbPoll+0xfe>
 42e:	90 e0       	ldi	r25, 0x00	; 0
 430:	25 e8       	ldi	r18, 0x85	; 133
 432:	30 e0       	ldi	r19, 0x00	; 0
 434:	03 c0       	rjmp	.+6      	; 0x43c <usbPoll+0x10a>
 436:	2f e8       	ldi	r18, 0x8F	; 143
 438:	30 e0       	ldi	r19, 0x00	; 0
 43a:	91 e0       	ldi	r25, 0x01	; 1
 43c:	30 93 8b 00 	sts	0x008B, r19
 440:	20 93 8a 00 	sts	0x008A, r18
 444:	07 c0       	rjmp	.+14     	; 0x454 <usbPoll+0x122>
 446:	88 81       	ld	r24, Y
 448:	87 fd       	sbrc	r24, 7
 44a:	9e 81       	ldd	r25, Y+6	; 0x06
 44c:	80 e8       	ldi	r24, 0x80	; 128
 44e:	80 93 62 00 	sts	0x0062, r24
 452:	07 c0       	rjmp	.+14     	; 0x462 <__stack+0x3>
 454:	8f 81       	ldd	r24, Y+7	; 0x07
 456:	81 11       	cpse	r24, r1
 458:	04 c0       	rjmp	.+8      	; 0x462 <__stack+0x3>
 45a:	8e 81       	ldd	r24, Y+6	; 0x06
 45c:	89 17       	cp	r24, r25
 45e:	08 f4       	brcc	.+2      	; 0x462 <__stack+0x3>
 460:	98 2f       	mov	r25, r24
 462:	90 93 60 00 	sts	0x0060, r25
 466:	0f c0       	rjmp	.+30     	; 0x486 <__stack+0x27>
 468:	80 91 62 00 	lds	r24, 0x0062
 46c:	87 ff       	sbrs	r24, 7
 46e:	0b c0       	rjmp	.+22     	; 0x486 <__stack+0x27>
 470:	ce 01       	movw	r24, r28
 472:	c9 d0       	rcall	.+402    	; 0x606 <usbFunctionWrite>
 474:	8f 3f       	cpi	r24, 0xFF	; 255
 476:	21 f4       	brne	.+8      	; 0x480 <__stack+0x21>
 478:	8e e1       	ldi	r24, 0x1E	; 30
 47a:	80 93 61 00 	sts	0x0061, r24
 47e:	03 c0       	rjmp	.+6      	; 0x486 <__stack+0x27>
 480:	81 11       	cpse	r24, r1
 482:	10 92 60 00 	sts	0x0060, r1
 486:	10 92 8c 00 	sts	0x008C, r1
 48a:	80 91 61 00 	lds	r24, 0x0061
 48e:	84 ff       	sbrs	r24, 4
 490:	41 c0       	rjmp	.+130    	; 0x514 <__stack+0xb5>
 492:	80 91 60 00 	lds	r24, 0x0060
 496:	8f 3f       	cpi	r24, 0xFF	; 255
 498:	09 f4       	brne	.+2      	; 0x49c <__stack+0x3d>
 49a:	3c c0       	rjmp	.+120    	; 0x514 <__stack+0xb5>
 49c:	c8 2f       	mov	r28, r24
 49e:	89 30       	cpi	r24, 0x09	; 9
 4a0:	08 f0       	brcs	.+2      	; 0x4a4 <__stack+0x45>
 4a2:	c8 e0       	ldi	r28, 0x08	; 8
 4a4:	8c 1b       	sub	r24, r28
 4a6:	80 93 60 00 	sts	0x0060, r24
 4aa:	90 91 7c 00 	lds	r25, 0x007C
 4ae:	88 e8       	ldi	r24, 0x88	; 136
 4b0:	89 27       	eor	r24, r25
 4b2:	80 93 7c 00 	sts	0x007C, r24
 4b6:	cc 23       	and	r28, r28
 4b8:	01 f1       	breq	.+64     	; 0x4fa <__stack+0x9b>
 4ba:	80 91 8a 00 	lds	r24, 0x008A
 4be:	90 91 8b 00 	lds	r25, 0x008B
 4c2:	30 91 62 00 	lds	r19, 0x0062
 4c6:	2c 2f       	mov	r18, r28
 4c8:	28 0f       	add	r18, r24
 4ca:	ad e7       	ldi	r26, 0x7D	; 125
 4cc:	b0 e0       	ldi	r27, 0x00	; 0
 4ce:	fc 01       	movw	r30, r24
 4d0:	36 ff       	sbrs	r19, 6
 4d2:	06 c0       	rjmp	.+12     	; 0x4e0 <__stack+0x81>
 4d4:	34 91       	lpm	r19, Z
 4d6:	3d 93       	st	X+, r19
 4d8:	31 96       	adiw	r30, 0x01	; 1
 4da:	2e 13       	cpse	r18, r30
 4dc:	fb cf       	rjmp	.-10     	; 0x4d4 <__stack+0x75>
 4de:	04 c0       	rjmp	.+8      	; 0x4e8 <__stack+0x89>
 4e0:	31 91       	ld	r19, Z+
 4e2:	3d 93       	st	X+, r19
 4e4:	2e 13       	cpse	r18, r30
 4e6:	fc cf       	rjmp	.-8      	; 0x4e0 <__stack+0x81>
 4e8:	01 96       	adiw	r24, 0x01	; 1
 4ea:	2f ef       	ldi	r18, 0xFF	; 255
 4ec:	2c 0f       	add	r18, r28
 4ee:	82 0f       	add	r24, r18
 4f0:	91 1d       	adc	r25, r1
 4f2:	90 93 8b 00 	sts	0x008B, r25
 4f6:	80 93 8a 00 	sts	0x008A, r24
 4fa:	6c 2f       	mov	r22, r28
 4fc:	8d e7       	ldi	r24, 0x7D	; 125
 4fe:	90 e0       	ldi	r25, 0x00	; 0
 500:	e7 dd       	rcall	.-1074   	; 0xd0 <usbCrc16Append>
 502:	64 e0       	ldi	r22, 0x04	; 4
 504:	6c 0f       	add	r22, r28
 506:	6c 30       	cpi	r22, 0x0C	; 12
 508:	19 f0       	breq	.+6      	; 0x510 <__stack+0xb1>
 50a:	8f ef       	ldi	r24, 0xFF	; 255
 50c:	80 93 60 00 	sts	0x0060, r24
 510:	60 93 61 00 	sts	0x0061, r22
 514:	84 e1       	ldi	r24, 0x14	; 20
 516:	90 b3       	in	r25, 0x10	; 16
 518:	99 70       	andi	r25, 0x09	; 9
 51a:	31 f4       	brne	.+12     	; 0x528 <__stack+0xc9>
 51c:	81 50       	subi	r24, 0x01	; 1
 51e:	d9 f7       	brne	.-10     	; 0x516 <__stack+0xb7>
 520:	10 92 8d 00 	sts	0x008D, r1
 524:	10 92 87 00 	sts	0x0087, r1
 528:	df 91       	pop	r29
 52a:	cf 91       	pop	r28
 52c:	08 95       	ret

0000052e <usbInit>:
 52e:	85 b7       	in	r24, 0x35	; 53
 530:	8c 60       	ori	r24, 0x0C	; 12
 532:	85 bf       	out	0x35, r24	; 53
 534:	8b b7       	in	r24, 0x3b	; 59
 536:	80 68       	ori	r24, 0x80	; 128
 538:	8b bf       	out	0x3b, r24	; 59
 53a:	08 95       	ret

0000053c <adc_on>:
 53c:	97 b1       	in	r25, 0x07	; 7
 53e:	89 2b       	or	r24, r25
 540:	87 b9       	out	0x07, r24	; 7
 542:	86 b1       	in	r24, 0x06	; 6
 544:	86 60       	ori	r24, 0x06	; 6
 546:	86 b9       	out	0x06, r24	; 6
 548:	86 b1       	in	r24, 0x06	; 6
 54a:	68 2b       	or	r22, r24
 54c:	66 b9       	out	0x06, r22	; 6
 54e:	08 95       	ret

00000550 <adc_one>:
 550:	97 b1       	in	r25, 0x07	; 7
 552:	98 7f       	andi	r25, 0xF8	; 248
 554:	97 b9       	out	0x07, r25	; 7
 556:	97 b1       	in	r25, 0x07	; 7
 558:	89 2b       	or	r24, r25
 55a:	87 b9       	out	0x07, r24	; 7
 55c:	36 9a       	sbi	0x06, 6	; 6
 55e:	36 99       	sbic	0x06, 6	; 6
 560:	fe cf       	rjmp	.-4      	; 0x55e <adc_one+0xe>
 562:	3d 9b       	sbis	0x07, 5	; 7
 564:	03 c0       	rjmp	.+6      	; 0x56c <adc_one+0x1c>
 566:	85 b1       	in	r24, 0x05	; 5
 568:	90 e0       	ldi	r25, 0x00	; 0
 56a:	08 95       	ret
 56c:	84 b1       	in	r24, 0x04	; 4
 56e:	95 b1       	in	r25, 0x05	; 5
 570:	08 95       	ret

00000572 <adc_multiple>:
 572:	ef 92       	push	r14
 574:	ff 92       	push	r15
 576:	0f 93       	push	r16
 578:	1f 93       	push	r17
 57a:	cf 93       	push	r28
 57c:	df 93       	push	r29
 57e:	03 e6       	ldi	r16, 0x63	; 99
 580:	10 e0       	ldi	r17, 0x00	; 0
 582:	c0 e0       	ldi	r28, 0x00	; 0
 584:	d0 e0       	ldi	r29, 0x00	; 0
 586:	e8 2e       	mov	r14, r24
 588:	f1 2c       	mov	r15, r1
 58a:	c7 01       	movw	r24, r14
 58c:	0c 2e       	mov	r0, r28
 58e:	02 c0       	rjmp	.+4      	; 0x594 <adc_multiple+0x22>
 590:	95 95       	asr	r25
 592:	87 95       	ror	r24
 594:	0a 94       	dec	r0
 596:	e2 f7       	brpl	.-8      	; 0x590 <adc_multiple+0x1e>
 598:	80 ff       	sbrs	r24, 0
 59a:	05 c0       	rjmp	.+10     	; 0x5a6 <adc_multiple+0x34>
 59c:	8c 2f       	mov	r24, r28
 59e:	d8 df       	rcall	.-80     	; 0x550 <adc_one>
 5a0:	f8 01       	movw	r30, r16
 5a2:	91 83       	std	Z+1, r25	; 0x01
 5a4:	80 83       	st	Z, r24
 5a6:	21 96       	adiw	r28, 0x01	; 1
 5a8:	0e 5f       	subi	r16, 0xFE	; 254
 5aa:	1f 4f       	sbci	r17, 0xFF	; 255
 5ac:	c6 30       	cpi	r28, 0x06	; 6
 5ae:	d1 05       	cpc	r29, r1
 5b0:	61 f7       	brne	.-40     	; 0x58a <adc_multiple+0x18>
 5b2:	83 e6       	ldi	r24, 0x63	; 99
 5b4:	90 e0       	ldi	r25, 0x00	; 0
 5b6:	df 91       	pop	r29
 5b8:	cf 91       	pop	r28
 5ba:	1f 91       	pop	r17
 5bc:	0f 91       	pop	r16
 5be:	ff 90       	pop	r15
 5c0:	ef 90       	pop	r14
 5c2:	08 95       	ret

000005c4 <adc_off>:
 5c4:	37 98       	cbi	0x06, 7	; 6
 5c6:	08 95       	ret

000005c8 <usbFunctionSetup>:
 5c8:	fc 01       	movw	r30, r24
 5ca:	21 81       	ldd	r18, Z+1	; 0x01
 5cc:	22 30       	cpi	r18, 0x02	; 2
 5ce:	19 f0       	breq	.+6      	; 0x5d6 <usbFunctionSetup+0xe>
 5d0:	24 30       	cpi	r18, 0x04	; 4
 5d2:	49 f0       	breq	.+18     	; 0x5e6 <usbFunctionSetup+0x1e>
 5d4:	14 c0       	rjmp	.+40     	; 0x5fe <usbFunctionSetup+0x36>
 5d6:	83 e7       	ldi	r24, 0x73	; 115
 5d8:	90 e0       	ldi	r25, 0x00	; 0
 5da:	90 93 8b 00 	sts	0x008B, r25
 5de:	80 93 8a 00 	sts	0x008A, r24
 5e2:	88 e0       	ldi	r24, 0x08	; 8
 5e4:	08 95       	ret
 5e6:	fc 01       	movw	r30, r24
 5e8:	86 81       	ldd	r24, Z+6	; 0x06
 5ea:	80 93 71 00 	sts	0x0071, r24
 5ee:	10 92 72 00 	sts	0x0072, r1
 5f2:	89 30       	cpi	r24, 0x09	; 9
 5f4:	30 f0       	brcs	.+12     	; 0x602 <usbFunctionSetup+0x3a>
 5f6:	88 e0       	ldi	r24, 0x08	; 8
 5f8:	80 93 71 00 	sts	0x0071, r24
 5fc:	02 c0       	rjmp	.+4      	; 0x602 <usbFunctionSetup+0x3a>
 5fe:	80 e0       	ldi	r24, 0x00	; 0
 600:	08 95       	ret
 602:	8f ef       	ldi	r24, 0xFF	; 255
 604:	08 95       	ret

00000606 <usbFunctionWrite>:
 606:	30 91 71 00 	lds	r19, 0x0071
 60a:	20 91 72 00 	lds	r18, 0x0072
 60e:	62 0f       	add	r22, r18
 610:	23 17       	cp	r18, r19
 612:	38 f0       	brcs	.+14     	; 0x622 <usbFunctionWrite+0x1c>
 614:	20 93 72 00 	sts	0x0072, r18
 618:	81 e0       	ldi	r24, 0x01	; 1
 61a:	23 17       	cp	r18, r19
 61c:	71 f0       	breq	.+28     	; 0x63a <usbFunctionWrite+0x34>
 61e:	80 e0       	ldi	r24, 0x00	; 0
 620:	08 95       	ret
 622:	26 17       	cp	r18, r22
 624:	b9 f3       	breq	.-18     	; 0x614 <usbFunctionWrite+0xe>
 626:	e2 2f       	mov	r30, r18
 628:	f0 e0       	ldi	r31, 0x00	; 0
 62a:	dc 01       	movw	r26, r24
 62c:	4d 91       	ld	r20, X+
 62e:	cd 01       	movw	r24, r26
 630:	ed 58       	subi	r30, 0x8D	; 141
 632:	ff 4f       	sbci	r31, 0xFF	; 255
 634:	40 83       	st	Z, r20
 636:	2f 5f       	subi	r18, 0xFF	; 255
 638:	eb cf       	rjmp	.-42     	; 0x610 <usbFunctionWrite+0xa>
 63a:	08 95       	ret

0000063c <main>:
 63c:	83 e0       	ldi	r24, 0x03	; 3
 63e:	80 93 77 00 	sts	0x0077, r24
 642:	8f ef       	ldi	r24, 0xFF	; 255
 644:	80 93 76 00 	sts	0x0076, r24
 648:	a5 9a       	sbi	0x14, 5	; 20
 64a:	ad 9a       	sbi	0x15, 5	; 21
 64c:	84 b3       	in	r24, 0x14	; 20
 64e:	8e 61       	ori	r24, 0x1E	; 30
 650:	84 bb       	out	0x14, r24	; 20
 652:	aa 98       	cbi	0x15, 2	; 21
 654:	a9 9a       	sbi	0x15, 1	; 21
 656:	60 ec       	ldi	r22, 0xC0	; 192
 658:	85 e4       	ldi	r24, 0x45	; 69
 65a:	70 df       	rcall	.-288    	; 0x53c <adc_on>
 65c:	9e e0       	ldi	r25, 0x0E	; 14
 65e:	88 e1       	ldi	r24, 0x18	; 24
 660:	0f b6       	in	r0, 0x3f	; 63
 662:	f8 94       	cli
 664:	a8 95       	wdr
 666:	81 bd       	out	0x21, r24	; 33
 668:	0f be       	out	0x3f, r0	; 63
 66a:	91 bd       	out	0x21, r25	; 33
 66c:	60 df       	rcall	.-320    	; 0x52e <usbInit>
 66e:	88 9a       	sbi	0x11, 0	; 17
 670:	8a ef       	ldi	r24, 0xFA	; 250
 672:	a8 95       	wdr
 674:	ef e6       	ldi	r30, 0x6F	; 111
 676:	f7 e1       	ldi	r31, 0x17	; 23
 678:	31 97       	sbiw	r30, 0x01	; 1
 67a:	f1 f7       	brne	.-4      	; 0x678 <main+0x3c>
 67c:	00 c0       	rjmp	.+0      	; 0x67e <main+0x42>
 67e:	00 00       	nop
 680:	81 50       	subi	r24, 0x01	; 1
 682:	b9 f7       	brne	.-18     	; 0x672 <main+0x36>
 684:	88 98       	cbi	0x11, 0	; 17
 686:	78 94       	sei
 688:	c1 e0       	ldi	r28, 0x01	; 1
 68a:	d0 e0       	ldi	r29, 0x00	; 0
 68c:	a8 95       	wdr
 68e:	85 e0       	ldi	r24, 0x05	; 5
 690:	5f df       	rcall	.-322    	; 0x550 <adc_one>
 692:	24 b1       	in	r18, 0x04	; 4
 694:	35 b1       	in	r19, 0x05	; 5
 696:	23 2f       	mov	r18, r19
 698:	23 70       	andi	r18, 0x03	; 3
 69a:	20 93 75 00 	sts	0x0075, r18
 69e:	24 b1       	in	r18, 0x04	; 4
 6a0:	35 b1       	in	r19, 0x05	; 5
 6a2:	20 93 74 00 	sts	0x0074, r18
 6a6:	c1 30       	cpi	r28, 0x01	; 1
 6a8:	d1 05       	cpc	r29, r1
 6aa:	a9 f4       	brne	.+42     	; 0x6d6 <main+0x9a>
 6ac:	20 91 77 00 	lds	r18, 0x0077
 6b0:	20 93 a7 00 	sts	0x00A7, r18
 6b4:	20 91 76 00 	lds	r18, 0x0076
 6b8:	20 93 a6 00 	sts	0x00A6, r18
 6bc:	20 91 a6 00 	lds	r18, 0x00A6
 6c0:	30 91 a7 00 	lds	r19, 0x00A7
 6c4:	28 17       	cp	r18, r24
 6c6:	39 07       	cpc	r19, r25
 6c8:	10 f4       	brcc	.+4      	; 0x6ce <main+0x92>
 6ca:	ac 9a       	sbi	0x15, 4	; 21
 6cc:	02 c0       	rjmp	.+4      	; 0x6d2 <main+0x96>
 6ce:	ac 98       	cbi	0x15, 4	; 21
 6d0:	ab 9a       	sbi	0x15, 3	; 21
 6d2:	ca ef       	ldi	r28, 0xFA	; 250
 6d4:	d0 e0       	ldi	r29, 0x00	; 0
 6d6:	21 97       	sbiw	r28, 0x01	; 1
 6d8:	87 eb       	ldi	r24, 0xB7	; 183
 6da:	9b e0       	ldi	r25, 0x0B	; 11
 6dc:	01 97       	sbiw	r24, 0x01	; 1
 6de:	f1 f7       	brne	.-4      	; 0x6dc <main+0xa0>
 6e0:	00 c0       	rjmp	.+0      	; 0x6e2 <main+0xa6>
 6e2:	00 00       	nop
 6e4:	26 de       	rcall	.-948    	; 0x332 <usbPoll>
 6e6:	d2 cf       	rjmp	.-92     	; 0x68c <main+0x50>

000006e8 <_exit>:
 6e8:	f8 94       	cli

000006ea <__stop_program>:
 6ea:	ff cf       	rjmp	.-2      	; 0x6ea <__stop_program>
